   1              		.arch armv8-a
   2              		.file	"bitscan.c"
   3              		.text
   4              		.section	.text.startup,"ax",@progbits
   5              		.align	2
   6              		.p2align 4,,15
   7              		.global	main
   8              		.type	main, %function
   9              	main:
  10              	.LFB26:
  11              		.cfi_startproc
  12 0000 01000090 		adrp	x1, .LC0
  13 0004 00000090 		adrp	x0, .LC1
  14 0008 FD7BBDA9 		stp	x29, x30, [sp, -48]!
  15              		.cfi_def_cfa_offset 48
  16              		.cfi_offset 29, -48
  17              		.cfi_offset 30, -40
  18 000c 21000091 		add	x1, x1, :lo12:.LC0
  19 0010 FD030091 		mov	x29, sp
  20 0014 02088052 		mov	w2, 64
  21 0018 00000091 		add	x0, x0, :lo12:.LC1
  22 001c F35301A9 		stp	x19, x20, [sp, 16]
  23              		.cfi_offset 19, -32
  24              		.cfi_offset 20, -24
  25 0020 14000090 		adrp	x20, .LC3
  26 0024 94020091 		add	x20, x20, :lo12:.LC3
  27 0028 33008052 		mov	w19, 1
  28 002c 00000094 		bl	printf
  29 0030 01000090 		adrp	x1, .LC2
  30 0034 E00314AA 		mov	x0, x20
  31 0038 21000091 		add	x1, x1, :lo12:.LC2
  32 003c 02018052 		mov	w2, 8
  33 0040 00000094 		bl	printf
  34 0044 01000090 		adrp	x1, .LC4
  35 0048 E00314AA 		mov	x0, x20
  36 004c 21000091 		add	x1, x1, :lo12:.LC4
  37 0050 02018052 		mov	w2, 8
  38 0054 00000094 		bl	printf
  39 0058 01000090 		adrp	x1, .LC5
  40 005c E203132A 		mov	w2, w19
  41 0060 E00314AA 		mov	x0, x20
  42 0064 21000091 		add	x1, x1, :lo12:.LC5
  43 0068 00000094 		bl	printf
  44 006c 03000090 		adrp	x3, :got:stdout
  45 0070 00000090 		adrp	x0, .LC6
  46 0074 630040F9 		ldr	x3, [x3, #:got_lo12:stdout]
  47 0078 220380D2 		mov	x2, 25
  48 007c 210080D2 		mov	x1, 1
  49 0080 00000091 		add	x0, x0, :lo12:.LC6
  50 0084 630040F9 		ldr	x3, [x3]
  51 0088 00000094 		bl	fwrite
  52 008c 00000090 		adrp	x0, .LC7
  53 0090 E1A30091 		add	x1, sp, 40
  54 0094 00000091 		add	x0, x0, :lo12:.LC7
  55 0098 00000094 		bl	__isoc99_scanf
  56 009c 00000090 		adrp	x0, .LC8
  57 00a0 E303132A 		mov	w3, w19
  58 00a4 E11740F9 		ldr	x1, [sp, 40]
  59 00a8 00000091 		add	x0, x0, :lo12:.LC8
  60              	#APP
  61              	// 451 "bitscan.h" 1
  62 00ac 2200C05A 		rbit	w2,w1
  63 00b0 4210C05A 		clz	w2,w2
  64 00b4 6314424B 		sub	w3,w3,w2,lsr #5
  65              	// 0 "" 2
  66              	#NO_APP
  67 00b8 631C0012 		and	w3, w3, 255
  68 00bc 00000094 		bl	printf
  69 00c0 E11740F9 		ldr	x1, [sp, 40]
  70 00c4 00000090 		adrp	x0, .LC9
  71 00c8 E303132A 		mov	w3, w19
  72 00cc E2038052 		mov	w2, 31
  73 00d0 00000091 		add	x0, x0, :lo12:.LC9
  74 00d4 E403012A 		mov	w4, w1
  75              	#APP
  76              	// 483 "bitscan.h" 1
  77 00d8 8410C05A 		clz	w4,w4
  78 00dc 4200044B 		sub	w2,w2,w4
  79 00e0 6314444B 		sub	w3,w3,w4,lsr #5
  80              	// 0 "" 2
  81              	#NO_APP
  82 00e4 631C0012 		and	w3, w3, 255
  83 00e8 00000094 		bl	printf
  84 00ec 00000090 		adrp	x0, .LC10
  85 00f0 E303132A 		mov	w3, w19
  86 00f4 E11740F9 		ldr	x1, [sp, 40]
  87 00f8 00000091 		add	x0, x0, :lo12:.LC10
  88              	#APP
  89              	// 467 "bitscan.h" 1
  90 00fc 2200C0DA 		rbit	x2,x1
  91 0100 4210C0DA 		clz	x2,x2
  92 0104 631842CB 		sub	x3,x3,x2,lsr #6
  93              	// 0 "" 2
  94              	#NO_APP
  95 0108 631C0012 		and	w3, w3, 255
  96 010c 00000094 		bl	printf
  97 0110 E41740F9 		ldr	x4, [sp, 40]
  98 0114 E2078052 		mov	w2, 63
  99 0118 00000090 		adrp	x0, .LC11
 100 011c 00000091 		add	x0, x0, :lo12:.LC11
 101 0120 E10304AA 		mov	x1, x4
 102              	#APP
 103              	// 499 "bitscan.h" 1
 104 0124 8410C0DA 		clz	x4,x4
 105 0128 420004CB 		sub	x2,x2,x4
 106 012c 731A44CB 		sub	x19,x19,x4,lsr #6
 107              	// 0 "" 2
 108              	#NO_APP
 109 0130 631E0012 		and	w3, w19, 255
 110 0134 00000094 		bl	printf
 111 0138 00008052 		mov	w0, 0
 112 013c F35341A9 		ldp	x19, x20, [sp, 16]
 113 0140 FD7BC3A8 		ldp	x29, x30, [sp], 48
 114              		.cfi_restore 30
 115              		.cfi_restore 29
 116              		.cfi_restore 19
 117              		.cfi_restore 20
 118              		.cfi_def_cfa_offset 0
 119 0144 C0035FD6 		ret
 120              		.cfi_endproc
 121              	.LFE26:
 122              		.size	main, .-main
 123              		.section	.rodata.str1.8,"aMS",@progbits,1
 124              		.align	3
 125              	.LC0:
 126 0000 574F5244 		.string	"WORDSIZE"
 126      53495A45 
 126      00
 127 0009 00000000 		.zero	7
 127      000000
 128              	.LC1:
 129 0010 0A252D31 		.string	"\n%-12s : %u\n"
 129      3273203A 
 129      2025750A 
 129      00
 130 001d 000000   		.zero	3
 131              	.LC2:
 132 0020 5F49535F 		.string	"_IS_ARM"
 132      41524D00 
 133              	.LC3:
 134 0028 252D3132 		.string	"%-12s : %u\n"
 134      73203A20 
 134      25750A00 
 135 0034 00000000 		.zero	4
 136              	.LC4:
 137 0038 5F49535F 		.string	"_IS_THUMB"
 137      5448554D 
 137      4200
 138 0042 00000000 		.zero	6
 138      0000
 139              	.LC5:
 140 0048 5F49535F 		.string	"_IS_ARM64"
 140      41524D36 
 140      3400
 141 0052 00000000 		.zero	6
 141      0000
 142              	.LC6:
 143 0058 0A496E70 		.string	"\nInput unsigned integer> "
 143      75742075 
 143      6E736967 
 143      6E656420 
 143      696E7465 
 144 0072 00000000 		.zero	6
 144      0000
 145              	.LC7:
 146 0078 256C6C75 		.string	"%llu"
 146      00
 147 007d 000000   		.zero	3
 148              	.LC8:
 149 0080 0A5F4269 		.string	"\n_BitScanForward( %lu ): %u (Success=%u)\n"
 149      74536361 
 149      6E466F72 
 149      77617264 
 149      2820256C 
 150 00aa 00000000 		.zero	6
 150      0000
 151              	.LC9:
 152 00b0 5F426974 		.string	"_BitScanReverse( %lu ): %u (Success=%u)\n"
 152      5363616E 
 152      52657665 
 152      72736528 
 152      20256C75 
 153 00d9 00000000 		.zero	7
 153      000000
 154              	.LC10:
 155 00e0 0A5F4269 		.string	"\n_BitScanForward64( %llu ): %u (Success=%u)\n"
 155      74536361 
 155      6E466F72 
 155      77617264 
 155      36342820 
 156 010d 000000   		.zero	3
 157              	.LC11:
 158 0110 5F426974 		.string	"_BitScanReverse64( %llu ): %u (Success=%u)\n"
 158      5363616E 
 158      52657665 
 158      72736536 
 158      34282025 
 159              		.ident	"GCC: (Debian 8.3.0-6) 8.3.0"
 160              		.section	.note.GNU-stack,"",@progbits
