; Listing generated by Microsoft (R) Optimizing Compiler Version 19.00.24215.1 

include listing.inc

INCLUDELIB LIBCMT
INCLUDELIB OLDNAMES

CONST	SEGMENT
$SG46646 DB	0aH, 'BitScan - Copyright (c) 2019 by Alexander M. Albert'
	DB	'ian <assa@4ip.ru>.', 0aH, 'All rights reserved.', 0aH, 0aH, 00H
	ORG $+2
$SG46647 DB	'__WORDSIZE', 00H
	ORG $+5
$SG46648 DB	'%-12s : %lu', 0aH, 00H
	ORG $+3
$SG46649 DB	'_IS_X64', 00H
$SG46650 DB	'%-12s : %lu', 0aH, 00H
	ORG $+3
$SG46651 DB	0aH, 'Input unsigned integer> ', 00H
	ORG $+2
$SG46652 DB	'%llu', 00H
	ORG $+7
$SG46653 DB	0aH, '32-bit input value: %lu', 0aH, 00H
	ORG $+6
$SG46654 DB	'_BSR32( %lu ): %u (Success=%u)', 0aH, 00H
$SG46655 DB	'_BSF32( %lu ): %u (Success=%u)', 0aH, 00H
$SG46656 DB	0aH, '64-bit input value: %llu', 0aH, 00H
	ORG $+5
$SG46657 DB	'_BSR64( %llu ): %u (Success=%u)', 0aH, 00H
	ORG $+7
$SG46658 DB	'_BSF64( %llu ): %u (Success=%u)', 0aH, 00H
CONST	ENDS
PUBLIC	__local_stdio_printf_options
PUBLIC	__local_stdio_scanf_options
PUBLIC	_vfprintf_l
PUBLIC	??$__vcrt_va_start_verify_argument_type@QEBD@@YAXXZ ; __vcrt_va_start_verify_argument_type<char const * __ptr64 const>
PUBLIC	printf
PUBLIC	_vfscanf_l
PUBLIC	scanf
PUBLIC	main
PUBLIC	?_OptionsStorage@?1??__local_stdio_printf_options@@9@4_KA ; `__local_stdio_printf_options'::`2'::_OptionsStorage
PUBLIC	?_OptionsStorage@?1??__local_stdio_scanf_options@@9@4_KA ; `__local_stdio_scanf_options'::`2'::_OptionsStorage
EXTRN	__acrt_iob_func:PROC
EXTRN	fputs:PROC
EXTRN	__stdio_common_vfprintf:PROC
EXTRN	__stdio_common_vfscanf:PROC
;	COMDAT ?_OptionsStorage@?1??__local_stdio_printf_options@@9@4_KA
_BSS	SEGMENT
?_OptionsStorage@?1??__local_stdio_printf_options@@9@4_KA DQ 01H DUP (?) ; `__local_stdio_printf_options'::`2'::_OptionsStorage
_BSS	ENDS
;	COMDAT ?_OptionsStorage@?1??__local_stdio_scanf_options@@9@4_KA
_BSS	SEGMENT
?_OptionsStorage@?1??__local_stdio_scanf_options@@9@4_KA DQ 01H DUP (?) ; `__local_stdio_scanf_options'::`2'::_OptionsStorage
_BSS	ENDS
;	COMDAT pdata
pdata	SEGMENT
$pdata$_vfprintf_l DD imagerel $LN4
	DD	imagerel $LN4+80
	DD	imagerel $unwind$_vfprintf_l
pdata	ENDS
;	COMDAT pdata
pdata	SEGMENT
$pdata$printf DD imagerel $LN8
	DD	imagerel $LN8+83
	DD	imagerel $unwind$printf
pdata	ENDS
;	COMDAT pdata
pdata	SEGMENT
$pdata$_vfscanf_l DD imagerel $LN4
	DD	imagerel $LN4+80
	DD	imagerel $unwind$_vfscanf_l
pdata	ENDS
;	COMDAT pdata
pdata	SEGMENT
$pdata$scanf DD	imagerel $LN8
	DD	imagerel $LN8+80
	DD	imagerel $unwind$scanf
pdata	ENDS
pdata	SEGMENT
$pdata$main DD	imagerel $LN12
	DD	imagerel $LN12+277
	DD	imagerel $unwind$main
pdata	ENDS
xdata	SEGMENT
$unwind$main DD	010401H
	DD	04204H
xdata	ENDS
;	COMDAT xdata
xdata	SEGMENT
$unwind$scanf DD 041b01H
	DD	07017521bH
	DD	030156016H
xdata	ENDS
;	COMDAT xdata
xdata	SEGMENT
$unwind$_vfscanf_l DD 081401H
	DD	0a6414H
	DD	095414H
	DD	083414H
	DD	070105214H
xdata	ENDS
;	COMDAT xdata
xdata	SEGMENT
$unwind$printf DD 041b01H
	DD	07017521bH
	DD	030156016H
xdata	ENDS
;	COMDAT xdata
xdata	SEGMENT
$unwind$_vfprintf_l DD 081401H
	DD	0a6414H
	DD	095414H
	DD	083414H
	DD	070105214H
xdata	ENDS
; Function compile flags: /Ogtpy
; File d:\work\bitscan\bitscan\bitscan.cpp
_TEXT	SEGMENT
input$ = 48
main	PROC

; 44   : {

$LN12:
  00000	48 83 ec 28	 sub	 rsp, 40			; 00000028H

; 45   : 	unsigned long long input;
; 46   : 	unsigned result;
; 47   : 	unsigned status;
; 48   : 
; 49   : 	fputs( "\nBitScan - Copyright (c) 2019 by Alexander M. Albertian <assa@4ip.ru>.\nAll rights reserved.\n\n", stdout );

  00004	b9 01 00 00 00	 mov	 ecx, 1
  00009	e8 00 00 00 00	 call	 __acrt_iob_func
  0000e	48 8b d0	 mov	 rdx, rax
  00011	48 8d 0d 00 00
	00 00		 lea	 rcx, OFFSET FLAT:$SG46646
  00018	e8 00 00 00 00	 call	 fputs

; 50   : 
; 51   : 	PRINTM( __WORDSIZE );

  0001d	41 b8 40 00 00
	00		 mov	 r8d, 64			; 00000040H
  00023	48 8d 15 00 00
	00 00		 lea	 rdx, OFFSET FLAT:$SG46647
  0002a	48 8d 0d 00 00
	00 00		 lea	 rcx, OFFSET FLAT:$SG46648
  00031	e8 00 00 00 00	 call	 printf

; 52   : 
; 53   : #ifdef _IS_X86
; 54   : 	PRINTM( _IS_X86 );
; 55   : #endif
; 56   : #ifdef _IS_386
; 57   : 	PRINTM( _IS_386 );
; 58   : #endif
; 59   : #ifdef _IS_X64
; 60   : 	PRINTM( _IS_X64 );

  00036	41 b8 01 00 00
	00		 mov	 r8d, 1
  0003c	48 8d 15 00 00
	00 00		 lea	 rdx, OFFSET FLAT:$SG46649
  00043	48 8d 0d 00 00
	00 00		 lea	 rcx, OFFSET FLAT:$SG46650
  0004a	e8 00 00 00 00	 call	 printf

; 61   : #endif
; 62   : #ifdef _IS_ARM
; 63   : 	PRINTM( _IS_ARM );
; 64   : #endif
; 65   : #ifdef _IS_THUMB
; 66   : 	PRINTM( _IS_THUMB );
; 67   : #endif
; 68   : #ifdef _IS_IN_THUMB
; 69   : 	PRINTM( _IS_IN_THUMB );
; 70   : #endif
; 71   : #ifdef _IS_ARM64
; 72   : 	PRINTM( _IS_ARM64 );
; 73   : #endif
; 74   : #ifdef _IS_NEON
; 75   : 	PRINTM( _IS_NEON );
; 76   : #endif
; 77   : 
; 78   : 	fputs( "\nInput unsigned integer> ", stdout );

  0004f	b9 01 00 00 00	 mov	 ecx, 1
  00054	e8 00 00 00 00	 call	 __acrt_iob_func
  00059	48 8b d0	 mov	 rdx, rax
  0005c	48 8d 0d 00 00
	00 00		 lea	 rcx, OFFSET FLAT:$SG46651
  00063	e8 00 00 00 00	 call	 fputs

; 79   : 	scanf( "%llu", &input );

  00068	48 8d 54 24 30	 lea	 rdx, QWORD PTR input$[rsp]
  0006d	48 8d 0d 00 00
	00 00		 lea	 rcx, OFFSET FLAT:$SG46652
  00074	e8 00 00 00 00	 call	 scanf

; 80   : 
; 81   : 	printf( "\n32-bit input value: %lu\n", ( unsigned long )( uint32_t )input );

  00079	8b 54 24 30	 mov	 edx, DWORD PTR input$[rsp]
  0007d	48 8d 0d 00 00
	00 00		 lea	 rcx, OFFSET FLAT:$SG46653
  00084	e8 00 00 00 00	 call	 printf

; 82   : #ifdef _IS_BITSCANR32
; 83   : 	status = _BSR32( &result, ( uint32_t )input );

  00089	48 8b 4c 24 30	 mov	 rcx, QWORD PTR input$[rsp]
  0008e	44 0f bd c1	 bsr	 r8d, ecx

; 84   : 	printf( "_BSR32( %lu ): %u (Success=%u)\n", ( unsigned long )( uint32_t )input, result, status );

  00092	8b d1		 mov	 edx, ecx
  00094	48 8d 0d 00 00
	00 00		 lea	 rcx, OFFSET FLAT:$SG46654
  0009b	0f 95 c0	 setne	 al
  0009e	44 0f b6 c8	 movzx	 r9d, al
  000a2	e8 00 00 00 00	 call	 printf

; 85   : #endif
; 86   : #ifdef _IS_BITSCANF32
; 87   : 	status = _BSF32( &result, ( uint32_t )input );

  000a7	48 8b 4c 24 30	 mov	 rcx, QWORD PTR input$[rsp]
  000ac	44 0f bc c1	 bsf	 r8d, ecx

; 88   : 	printf( "_BSF32( %lu ): %u (Success=%u)\n", ( unsigned long )( uint32_t )input, result, status );

  000b0	8b d1		 mov	 edx, ecx
  000b2	48 8d 0d 00 00
	00 00		 lea	 rcx, OFFSET FLAT:$SG46655
  000b9	0f 95 c0	 setne	 al
  000bc	44 0f b6 c8	 movzx	 r9d, al
  000c0	e8 00 00 00 00	 call	 printf

; 89   : #endif
; 90   : #ifdef _IS_BITSCAN64
; 91   : 	printf( "\n64-bit input value: %llu\n", input );

  000c5	48 8b 54 24 30	 mov	 rdx, QWORD PTR input$[rsp]
  000ca	48 8d 0d 00 00
	00 00		 lea	 rcx, OFFSET FLAT:$SG46656
  000d1	e8 00 00 00 00	 call	 printf

; 92   : 	status = _BSR64( &result, input );

  000d6	48 8b 54 24 30	 mov	 rdx, QWORD PTR input$[rsp]

; 93   : 	printf( "_BSR64( %llu ): %u (Success=%u)\n", input, result, status );

  000db	48 8d 0d 00 00
	00 00		 lea	 rcx, OFFSET FLAT:$SG46657
  000e2	4c 0f bd c2	 bsr	 r8, rdx
  000e6	0f 95 c0	 setne	 al
  000e9	44 0f b6 c8	 movzx	 r9d, al
  000ed	e8 00 00 00 00	 call	 printf

; 94   : 	status = _BSF64( &result, input );

  000f2	48 8b 54 24 30	 mov	 rdx, QWORD PTR input$[rsp]

; 95   : 	printf( "_BSF64( %llu ): %u (Success=%u)\n", input, result, status );

  000f7	48 8d 0d 00 00
	00 00		 lea	 rcx, OFFSET FLAT:$SG46658
  000fe	4c 0f bc c2	 bsf	 r8, rdx
  00102	0f 95 c0	 setne	 al
  00105	44 0f b6 c8	 movzx	 r9d, al
  00109	e8 00 00 00 00	 call	 printf

; 96   : #endif
; 97   : 
; 98   : 	return EXIT_SUCCESS;

  0010e	33 c0		 xor	 eax, eax

; 99   : }

  00110	48 83 c4 28	 add	 rsp, 40			; 00000028H
  00114	c3		 ret	 0
main	ENDP
_TEXT	ENDS
; Function compile flags: /Ogtpy
; File c:\program files (x86)\windows kits\10\include\10.0.14393.0\ucrt\stdio.h
;	COMDAT scanf
_TEXT	SEGMENT
_Format$ = 80
scanf	PROC						; COMDAT

; 1275 :     {

$LN8:
  00000	48 89 4c 24 08	 mov	 QWORD PTR [rsp+8], rcx
  00005	48 89 54 24 10	 mov	 QWORD PTR [rsp+16], rdx
  0000a	4c 89 44 24 18	 mov	 QWORD PTR [rsp+24], r8
  0000f	4c 89 4c 24 20	 mov	 QWORD PTR [rsp+32], r9
  00014	53		 push	 rbx
  00015	56		 push	 rsi
  00016	57		 push	 rdi
  00017	48 83 ec 30	 sub	 rsp, 48			; 00000030H
  0001b	48 8b f9	 mov	 rdi, rcx

; 1276 :         int _Result;
; 1277 :         va_list _ArgList;
; 1278 :         __crt_va_start(_ArgList, _Format);

  0001e	48 8d 74 24 58	 lea	 rsi, QWORD PTR _Format$[rsp+8]

; 1279 :         _Result = _vfscanf_l(stdin, _Format, NULL, _ArgList);

  00023	33 c9		 xor	 ecx, ecx
  00025	e8 00 00 00 00	 call	 __acrt_iob_func
  0002a	48 8b d8	 mov	 rbx, rax
  0002d	e8 00 00 00 00	 call	 __local_stdio_scanf_options
  00032	45 33 c9	 xor	 r9d, r9d
  00035	48 89 74 24 20	 mov	 QWORD PTR [rsp+32], rsi
  0003a	4c 8b c7	 mov	 r8, rdi
  0003d	48 8b d3	 mov	 rdx, rbx
  00040	48 8b 08	 mov	 rcx, QWORD PTR [rax]
  00043	e8 00 00 00 00	 call	 __stdio_common_vfscanf

; 1280 :         __crt_va_end(_ArgList);
; 1281 :         return _Result;
; 1282 :     }

  00048	48 83 c4 30	 add	 rsp, 48			; 00000030H
  0004c	5f		 pop	 rdi
  0004d	5e		 pop	 rsi
  0004e	5b		 pop	 rbx
  0004f	c3		 ret	 0
scanf	ENDP
_TEXT	ENDS
; Function compile flags: /Ogtpy
; File c:\program files (x86)\windows kits\10\include\10.0.14393.0\ucrt\stdio.h
;	COMDAT _vfscanf_l
_TEXT	SEGMENT
_Stream$ = 64
_Format$ = 72
_Locale$ = 80
_ArgList$ = 88
_vfscanf_l PROC						; COMDAT

; 1057 :     {

$LN4:
  00000	48 89 5c 24 08	 mov	 QWORD PTR [rsp+8], rbx
  00005	48 89 6c 24 10	 mov	 QWORD PTR [rsp+16], rbp
  0000a	48 89 74 24 18	 mov	 QWORD PTR [rsp+24], rsi
  0000f	57		 push	 rdi
  00010	48 83 ec 30	 sub	 rsp, 48			; 00000030H
  00014	49 8b d9	 mov	 rbx, r9
  00017	49 8b f8	 mov	 rdi, r8
  0001a	48 8b f2	 mov	 rsi, rdx
  0001d	48 8b e9	 mov	 rbp, rcx

; 1058 :         return __stdio_common_vfscanf(

  00020	e8 00 00 00 00	 call	 __local_stdio_scanf_options
  00025	4c 8b cf	 mov	 r9, rdi
  00028	48 89 5c 24 20	 mov	 QWORD PTR [rsp+32], rbx
  0002d	4c 8b c6	 mov	 r8, rsi
  00030	48 8b d5	 mov	 rdx, rbp
  00033	48 8b 08	 mov	 rcx, QWORD PTR [rax]
  00036	e8 00 00 00 00	 call	 __stdio_common_vfscanf

; 1059 :             _CRT_INTERNAL_LOCAL_SCANF_OPTIONS,
; 1060 :             _Stream, _Format, _Locale, _ArgList);
; 1061 :     }

  0003b	48 8b 5c 24 40	 mov	 rbx, QWORD PTR [rsp+64]
  00040	48 8b 6c 24 48	 mov	 rbp, QWORD PTR [rsp+72]
  00045	48 8b 74 24 50	 mov	 rsi, QWORD PTR [rsp+80]
  0004a	48 83 c4 30	 add	 rsp, 48			; 00000030H
  0004e	5f		 pop	 rdi
  0004f	c3		 ret	 0
_vfscanf_l ENDP
_TEXT	ENDS
; Function compile flags: /Ogtpy
; File c:\program files (x86)\windows kits\10\include\10.0.14393.0\ucrt\stdio.h
;	COMDAT printf
_TEXT	SEGMENT
_Format$ = 80
printf	PROC						; COMDAT

; 949  :     {

$LN8:
  00000	48 89 4c 24 08	 mov	 QWORD PTR [rsp+8], rcx
  00005	48 89 54 24 10	 mov	 QWORD PTR [rsp+16], rdx
  0000a	4c 89 44 24 18	 mov	 QWORD PTR [rsp+24], r8
  0000f	4c 89 4c 24 20	 mov	 QWORD PTR [rsp+32], r9
  00014	53		 push	 rbx
  00015	56		 push	 rsi
  00016	57		 push	 rdi
  00017	48 83 ec 30	 sub	 rsp, 48			; 00000030H
  0001b	48 8b f9	 mov	 rdi, rcx

; 950  :         int _Result;
; 951  :         va_list _ArgList;
; 952  :         __crt_va_start(_ArgList, _Format);

  0001e	48 8d 74 24 58	 lea	 rsi, QWORD PTR _Format$[rsp+8]

; 953  :         _Result = _vfprintf_l(stdout, _Format, NULL, _ArgList);

  00023	b9 01 00 00 00	 mov	 ecx, 1
  00028	e8 00 00 00 00	 call	 __acrt_iob_func
  0002d	48 8b d8	 mov	 rbx, rax
  00030	e8 00 00 00 00	 call	 __local_stdio_printf_options
  00035	45 33 c9	 xor	 r9d, r9d
  00038	48 89 74 24 20	 mov	 QWORD PTR [rsp+32], rsi
  0003d	4c 8b c7	 mov	 r8, rdi
  00040	48 8b d3	 mov	 rdx, rbx
  00043	48 8b 08	 mov	 rcx, QWORD PTR [rax]
  00046	e8 00 00 00 00	 call	 __stdio_common_vfprintf

; 954  :         __crt_va_end(_ArgList);
; 955  :         return _Result;
; 956  :     }

  0004b	48 83 c4 30	 add	 rsp, 48			; 00000030H
  0004f	5f		 pop	 rdi
  00050	5e		 pop	 rsi
  00051	5b		 pop	 rbx
  00052	c3		 ret	 0
printf	ENDP
_TEXT	ENDS
; Function compile flags: /Ogtpy
; File c:\program files (x86)\microsoft visual studio 14.0\vc\include\vadefs.h
;	COMDAT ??$__vcrt_va_start_verify_argument_type@QEBD@@YAXXZ
_TEXT	SEGMENT
??$__vcrt_va_start_verify_argument_type@QEBD@@YAXXZ PROC ; __vcrt_va_start_verify_argument_type<char const * __ptr64 const>, COMDAT

; 145  :             static_assert(!__vcrt_va_list_is_reference<_Ty>::__the_value, "va_start argument must not have reference type and must not be parenthesized");
; 146  :         }

  00000	c2 00 00	 ret	 0
??$__vcrt_va_start_verify_argument_type@QEBD@@YAXXZ ENDP ; __vcrt_va_start_verify_argument_type<char const * __ptr64 const>
_TEXT	ENDS
; Function compile flags: /Ogtpy
; File c:\program files (x86)\windows kits\10\include\10.0.14393.0\ucrt\stdio.h
;	COMDAT _vfprintf_l
_TEXT	SEGMENT
_Stream$ = 64
_Format$ = 72
_Locale$ = 80
_ArgList$ = 88
_vfprintf_l PROC					; COMDAT

; 637  :     {

$LN4:
  00000	48 89 5c 24 08	 mov	 QWORD PTR [rsp+8], rbx
  00005	48 89 6c 24 10	 mov	 QWORD PTR [rsp+16], rbp
  0000a	48 89 74 24 18	 mov	 QWORD PTR [rsp+24], rsi
  0000f	57		 push	 rdi
  00010	48 83 ec 30	 sub	 rsp, 48			; 00000030H
  00014	49 8b d9	 mov	 rbx, r9
  00017	49 8b f8	 mov	 rdi, r8
  0001a	48 8b f2	 mov	 rsi, rdx
  0001d	48 8b e9	 mov	 rbp, rcx

; 638  :         return __stdio_common_vfprintf(_CRT_INTERNAL_LOCAL_PRINTF_OPTIONS, _Stream, _Format, _Locale, _ArgList);

  00020	e8 00 00 00 00	 call	 __local_stdio_printf_options
  00025	4c 8b cf	 mov	 r9, rdi
  00028	48 89 5c 24 20	 mov	 QWORD PTR [rsp+32], rbx
  0002d	4c 8b c6	 mov	 r8, rsi
  00030	48 8b d5	 mov	 rdx, rbp
  00033	48 8b 08	 mov	 rcx, QWORD PTR [rax]
  00036	e8 00 00 00 00	 call	 __stdio_common_vfprintf

; 639  :     }

  0003b	48 8b 5c 24 40	 mov	 rbx, QWORD PTR [rsp+64]
  00040	48 8b 6c 24 48	 mov	 rbp, QWORD PTR [rsp+72]
  00045	48 8b 74 24 50	 mov	 rsi, QWORD PTR [rsp+80]
  0004a	48 83 c4 30	 add	 rsp, 48			; 00000030H
  0004e	5f		 pop	 rdi
  0004f	c3		 ret	 0
_vfprintf_l ENDP
_TEXT	ENDS
; Function compile flags: /Ogtpy
; File c:\program files (x86)\windows kits\10\include\10.0.14393.0\ucrt\corecrt_stdio_config.h
;	COMDAT __local_stdio_scanf_options
_TEXT	SEGMENT
__local_stdio_scanf_options PROC			; COMDAT

; 95   :         static unsigned __int64 _OptionsStorage;
; 96   :         return &_OptionsStorage;

  00000	48 8d 05 00 00
	00 00		 lea	 rax, OFFSET FLAT:?_OptionsStorage@?1??__local_stdio_scanf_options@@9@4_KA ; `__local_stdio_scanf_options'::`2'::_OptionsStorage

; 97   :     }

  00007	c3		 ret	 0
__local_stdio_scanf_options ENDP
_TEXT	ENDS
; Function compile flags: /Ogtpy
; File c:\program files (x86)\windows kits\10\include\10.0.14393.0\ucrt\corecrt_stdio_config.h
;	COMDAT __local_stdio_printf_options
_TEXT	SEGMENT
__local_stdio_printf_options PROC			; COMDAT

; 86   :         static unsigned __int64 _OptionsStorage;
; 87   :         return &_OptionsStorage;

  00000	48 8d 05 00 00
	00 00		 lea	 rax, OFFSET FLAT:?_OptionsStorage@?1??__local_stdio_printf_options@@9@4_KA ; `__local_stdio_printf_options'::`2'::_OptionsStorage

; 88   :     }

  00007	c3		 ret	 0
__local_stdio_printf_options ENDP
_TEXT	ENDS
; Function compile flags: /Ogtpy
; File d:\work\bitscan\bitscan\bitscan.h
_TEXT	SEGMENT
i$ = 8
m$ = 16
?_BitScanReverse64@@YAEPEAI_K@Z PROC			; _BitScanReverse64

; 865  : 	register unsigned long r;
; 866  : 	register const unsigned char s = _BSR64( &r, m );

  00000	4c 0f bd c2	 bsr	 r8, rdx

; 867  : 	return *i = static_cast< bsint_t >( r ), s;

  00004	44 89 01	 mov	 DWORD PTR [rcx], r8d
  00007	0f 95 c0	 setne	 al

; 868  : }

  0000a	c3		 ret	 0
?_BitScanReverse64@@YAEPEAI_K@Z ENDP			; _BitScanReverse64
_TEXT	ENDS
; Function compile flags: /Ogtpy
; File d:\work\bitscan\bitscan\bitscan.h
_TEXT	SEGMENT
i$ = 8
m$ = 16
?_BitScanForward64@@YAEPEAI_K@Z PROC			; _BitScanForward64

; 857  : 	register unsigned long r;
; 858  : 	register const unsigned char s = _BSF64( &r, m );

  00000	4c 0f bc c2	 bsf	 r8, rdx

; 859  : 	return *i = static_cast< bsint_t >( r ), s;

  00004	44 89 01	 mov	 DWORD PTR [rcx], r8d
  00007	0f 95 c0	 setne	 al

; 860  : }

  0000a	c3		 ret	 0
?_BitScanForward64@@YAEPEAI_K@Z ENDP			; _BitScanForward64
_TEXT	ENDS
; Function compile flags: /Ogtpy
; File d:\work\bitscan\bitscan\bitscan.h
_TEXT	SEGMENT
i$ = 8
m$ = 16
?_BitScanReverse@@YAEPEAII@Z PROC			; _BitScanReverse

; 831  : 	register unsigned long r;
; 832  : 	register const unsigned char s = _BSR32( &r, m );

  00000	44 0f bd c2	 bsr	 r8d, edx

; 833  : 	return *i = static_cast< bsint_t >( r ), s;

  00004	44 89 01	 mov	 DWORD PTR [rcx], r8d
  00007	0f 95 c0	 setne	 al

; 834  : }

  0000a	c3		 ret	 0
?_BitScanReverse@@YAEPEAII@Z ENDP			; _BitScanReverse
_TEXT	ENDS
; Function compile flags: /Ogtpy
; File d:\work\bitscan\bitscan\bitscan.h
_TEXT	SEGMENT
i$ = 8
m$ = 16
?_BitScanForward@@YAEPEAII@Z PROC			; _BitScanForward

; 823  : 	register unsigned long r;
; 824  : 	register const unsigned char s = _BSF32( &r, m );

  00000	44 0f bc c2	 bsf	 r8d, edx

; 825  : 	return *i = static_cast< bsint_t >( r ), s;

  00004	44 89 01	 mov	 DWORD PTR [rcx], r8d
  00007	0f 95 c0	 setne	 al

; 826  : }

  0000a	c3		 ret	 0
?_BitScanForward@@YAEPEAII@Z ENDP			; _BitScanForward
_TEXT	ENDS
END
